; Function Attrs: mustprogress uwtable
define internal noundef ptr @"_ZNSt17_Function_handlerIFP25dependent_expr_simplifierR11ast_managerRK10params_refR20dependent_expr_stateEZ26Z3_simplifier_using_paramsE3$_0E9_M_invokeERKSt9_Any_dataS3_S6_S8_"(ptr nocapture noundef nonnull readonly align 8 dereferenceable(16) %__functor, ptr noundef nonnull align 8 dereferenceable(976) %__args, ptr noundef nonnull align 8 dereferenceable(8) %__args1, ptr noundef nonnull align 8 dereferenceable(160) %__args3) #3 align 2 personality ptr @__gxx_personality_v0 {
entry:
  %pp.i.i.i = alloca %class.params_ref, align 8
  %__functor.val = load ptr, ptr %__functor, align 8
  call void @llvm.lifetime.start.p0(i64 8, ptr nonnull %pp.i.i.i)
  store ptr null, ptr %pp.i.i.i, align 8
  invoke void @_ZN10params_ref4copyERKS_(ptr noundef nonnull align 8 dereferenceable(8) %pp.i.i.i, ptr noundef nonnull align 8 dereferenceable(8) %__functor.val)
          to label %invoke.cont.i.i.i unwind label %lpad.i.i.i

invoke.cont.i.i.i:                                ; preds = %entry
  invoke void @_ZN10params_ref4copyERKS_(ptr noundef nonnull align 8 dereferenceable(8) %pp.i.i.i, ptr noundef nonnull align 8 dereferenceable(8) %__args1)
          to label %invoke.cont2.i.i.i unwind label %lpad.i.i.i

invoke.cont2.i.i.i:                               ; preds = %invoke.cont.i.i.i
  %_M_manager.i.i.i.i.i = getelementptr inbounds i8, ptr %__functor.val, i64 24
  %0 = load ptr, ptr %_M_manager.i.i.i.i.i, align 8
  %tobool.not.i.i.i.i.i = icmp eq ptr %0, null
  br i1 %tobool.not.i.i.i.i.i, label %if.then.i.i.i.i, label %if.end.i.i.i.i

if.then.i.i.i.i:                                  ; preds = %invoke.cont2.i.i.i
  invoke void @_ZSt25__throw_bad_function_callv() #23
          to label %.noexc.i.i.i unwind label %lpad.i.i.i

.noexc.i.i.i:                                     ; preds = %if.then.i.i.i.i
  unreachable

if.end.i.i.i.i:                                   ; preds = %invoke.cont2.i.i.i
  %1 = getelementptr inbounds i8, ptr %__functor.val, i64 8
  %_M_invoker.i.i.i.i = getelementptr inbounds i8, ptr %__functor.val, i64 32
  %2 = load ptr, ptr %_M_invoker.i.i.i.i, align 8
  %call6.i2.i.i.i = invoke noundef ptr %2(ptr noundef nonnull align 8 dereferenceable(16) %1, ptr noundef nonnull align 8 dereferenceable(976) %__args, ptr noundef nonnull align 8 dereferenceable(8) %pp.i.i.i, ptr noundef nonnull align 8 dereferenceable(160) %__args3)
          to label %"_ZSt10__invoke_rIP25dependent_expr_simplifierRZ26Z3_simplifier_using_paramsE3$_0JR11ast_managerRK10params_refR20dependent_expr_stateEENSt9enable_ifIX16is_invocable_r_vIT_T0_DpT1_EESC_E4typeEOSD_DpOSE_.exit" unwind label %lpad.i.i.i

lpad.i.i.i:                                       ; preds = %if.end.i.i.i.i, %if.then.i.i.i.i, %invoke.cont.i.i.i, %entry
  %3 = landingpad { ptr, i32 }
          cleanup
  call void @_ZN10params_refD1Ev(ptr noundef nonnull align 8 dereferenceable(8) %pp.i.i.i) #19
  resume { ptr, i32 } %3

"_ZSt10__invoke_rIP25dependent_expr_simplifierRZ26Z3_simplifier_using_paramsE3$_0JR11ast_managerRK10params_refR20dependent_expr_stateEENSt9enable_ifIX16is_invocable_r_vIT_T0_DpT1_EESC_E4typeEOSD_DpOSE_.exit": ; preds = %if.end.i.i.i.i
  call void @_ZN10params_refD1Ev(ptr noundef nonnull align 8 dereferenceable(8) %pp.i.i.i) #19
  call void @llvm.lifetime.end.p0(i64 8, ptr nonnull %pp.i.i.i)
  ret ptr %call6.i2.i.i.i
}